target datalayout = "e-m:e-p270:32:32-p271:32:32-p272:64:64-i64:64-i128:128-f80:128-n8:16:32:64-S128"
target triple = "x86_64-pc-linux-gnu"

%"struct.gmx::Range<int>::iterator" = type { i32 }
%"class.gmx::TestParticleInsertion" = type { ptr, ptr, ptr, ptr, ptr, %struct.t_commrec, ptr, ptr, %"class.gmx::ForceBuffers", %"class.gmx::ThreeFry2x64", %"class.gmx::UniformRealDistribution", %"class.gmx::Range", i8, %"class.gmx::ArrayRef.10", %"class.std::vector.13", i32, i32, float, i8, i8, i8, float, float, %"class.std::vector.18", double, %"class.std::vector.18", i32, i32, i32, i8, double }
%struct.t_commrec = type <{ i8, [3 x i8], i32, i32, i32, i32, [4 x i8], ptr, ptr, i32, [4 x i8], ptr, i32, i32, %struct.gmx_nodecomm_t, %"class.std::unique_ptr", %"class.std::unique_ptr.2", ptr, ptr, i32, [4 x i8] }>
%struct.gmx_nodecomm_t = type { i8, ptr, i32, ptr }
%"class.std::unique_ptr" = type { %"struct.std::__uniq_ptr_data" }
%"struct.std::__uniq_ptr_data" = type { %"class.std::__uniq_ptr_impl" }
%"class.std::__uniq_ptr_impl" = type { %"class.std::tuple" }
%"class.std::tuple" = type { %"struct.std::_Tuple_impl" }
%"struct.std::_Tuple_impl" = type { %"struct.std::_Head_base.1" }
%"struct.std::_Head_base.1" = type { ptr }
%"class.std::unique_ptr.2" = type { %"struct.std::__uniq_ptr_data.3" }
%"struct.std::__uniq_ptr_data.3" = type { %"class.std::__uniq_ptr_impl.4" }
%"class.std::__uniq_ptr_impl.4" = type { %"class.std::tuple.5" }
%"class.std::tuple.5" = type { %"struct.std::_Tuple_impl.6" }
%"struct.std::_Tuple_impl.6" = type { %"struct.std::_Head_base.9" }
%"struct.std::_Head_base.9" = type { ptr }
%"class.gmx::ForceBuffers" = type <{ %"class.gmx::PaddedVector", %"class.gmx::PaddedVector", %"class.gmx::ForceBuffersView", i8, [7 x i8] }>
%"class.gmx::PaddedVector" = type { %"class.std::vector", %"class.__gnu_cxx::__normal_iterator" }
%"class.std::vector" = type { %"struct.std::_Vector_base" }
%"struct.std::_Vector_base" = type { %"struct.std::_Vector_base<gmx::BasicVector<float>, gmx::Allocator<gmx::BasicVector<float>, gmx::HostAllocationPolicy>>::_Vector_impl" }
%"struct.std::_Vector_base<gmx::BasicVector<float>, gmx::Allocator<gmx::BasicVector<float>, gmx::HostAllocationPolicy>>::_Vector_impl" = type { %"class.gmx::Allocator.base", %"struct.std::_Vector_base<gmx::BasicVector<float>, gmx::Allocator<gmx::BasicVector<float>, gmx::HostAllocationPolicy>>::_Vector_impl_data" }
%"class.gmx::Allocator.base" = type { %"class.gmx::HostAllocationPolicy.base" }
%"class.gmx::HostAllocationPolicy.base" = type <{ i32, i8 }>
%"struct.std::_Vector_base<gmx::BasicVector<float>, gmx::Allocator<gmx::BasicVector<float>, gmx::HostAllocationPolicy>>::_Vector_impl_data" = type { ptr, ptr, ptr }
%"class.__gnu_cxx::__normal_iterator" = type { ptr }
%"class.gmx::ForceBuffersView" = type <{ %"class.gmx::ArrayRefWithPadding", %"class.gmx::ArrayRefWithPadding", i8, [7 x i8] }>
%"class.gmx::ArrayRefWithPadding" = type { ptr, ptr, ptr }
%"class.gmx::ThreeFry2x64" = type { %"class.gmx::ThreeFry2x64General.base", [4 x i8] }
%"class.gmx::ThreeFry2x64General.base" = type <{ %"struct.std::array", %"struct.std::array", %"struct.std::array", i32 }>
%"struct.std::array" = type { [2 x i64] }
%"class.gmx::UniformRealDistribution" = type { %"class.gmx::UniformRealDistribution<>::param_type" }
%"class.gmx::UniformRealDistribution<>::param_type" = type { float, float }
%"class.gmx::Range" = type { i32, i32 }
%"class.gmx::ArrayRef.10" = type { %"struct.gmx::ArrayRefIter.11", %"struct.gmx::ArrayRefIter.11" }
%"struct.gmx::ArrayRefIter.11" = type { ptr }
%"class.std::vector.13" = type { %"struct.std::_Vector_base.14" }
%"struct.std::_Vector_base.14" = type { %"struct.std::_Vector_base<gmx::BasicVector<float>, std::allocator<gmx::BasicVector<float>>>::_Vector_impl" }
%"struct.std::_Vector_base<gmx::BasicVector<float>, std::allocator<gmx::BasicVector<float>>>::_Vector_impl" = type { %"struct.std::_Vector_base<gmx::BasicVector<float>, std::allocator<gmx::BasicVector<float>>>::_Vector_impl_data" }
%"struct.std::_Vector_base<gmx::BasicVector<float>, std::allocator<gmx::BasicVector<float>>>::_Vector_impl_data" = type { ptr, ptr, ptr }
%"class.std::vector.18" = type { %"struct.std::_Vector_base.19" }
%"struct.std::_Vector_base.19" = type { %"struct.std::_Vector_base<double, std::allocator<double>>::_Vector_impl" }
%"struct.std::_Vector_base<double, std::allocator<double>>::_Vector_impl" = type { %"struct.std::_Vector_base<double, std::allocator<double>>::_Vector_impl_data" }
%"struct.std::_Vector_base<double, std::allocator<double>>::_Vector_impl_data" = type { ptr, ptr, ptr }
%"class.std::vector.84" = type { %"struct.std::_Vector_base.85" }
%"struct.std::_Vector_base.85" = type { %"struct.std::_Vector_base<int, std::allocator<int>>::_Vector_impl" }
%"struct.std::_Vector_base<int, std::allocator<int>>::_Vector_impl" = type { %"struct.std::_Vector_base<int, std::allocator<int>>::_Vector_impl_data" }
%"struct.std::_Vector_base<int, std::allocator<int>>::_Vector_impl_data" = type { ptr, ptr, ptr }
%"struct.gmx::AtomInfoWithinMoleculeBlock" = type { i32, i32, %"class.std::vector.84" }
%"class.gmx::ArrayRef.306" = type { %"struct.gmx::ArrayRefIter.307", %"struct.gmx::ArrayRefIter.307" }
%"struct.gmx::ArrayRefIter.307" = type { ptr }
%class.anon.309 = type { i8 }

@.str.18 = private unnamed_addr constant [60 x i8] c"The last molecule block should match the molecule to insert\00", align 1
@.str.19 = private unnamed_addr constant [119 x i8] c"generated/home/dtcxzyw/WorkSpace/Projects/compilers/llvm-opt-benchmark/bench/gromacs/gromacs/src/gromacs/mdrun/tpi.cpp\00", align 1
@.str.23 = private unnamed_addr constant [148 x i8] c"NOTE: Atoms in the molecule to insert belong to different energy groups.\0A      Only contributions to the group of the first atom will be reported.\0A\00", align 1
@.str.24 = private unnamed_addr constant [78 x i8] c"atomInfoInsertion.indexOfFirstAtomInMoleculeBlock == *testAtomsRange_.begin()\00", align 1

; Function Attrs: mustprogress nounwind uwtable
define linkonce_odr noundef nonnull align 8 dereferenceable(8) ptr @_ZN3gmx12ArrayRefIterIKNS_27AtomInfoWithinMoleculeBlockEEpLEl(ptr noundef nonnull align 8 dereferenceable(8) %0, i64 noundef %1) #2 comdat align 2 {
  %3 = alloca ptr, align 8
  %4 = alloca i64, align 8
  store ptr %0, ptr %3, align 8, !tbaa !617
  store i64 %1, ptr %4, align 8, !tbaa !21
  %5 = load ptr, ptr %3, align 8
  %6 = load i64, ptr %4, align 8, !tbaa !21
  %7 = getelementptr inbounds nuw %"struct.gmx::ArrayRefIter.307", ptr %5, i32 0, i32 0
  %8 = load ptr, ptr %7, align 8, !tbaa !619
  %9 = getelementptr inbounds %"struct.gmx::AtomInfoWithinMoleculeBlock", ptr %8, i64 %6
  store ptr %9, ptr %7, align 8, !tbaa !619
  ret ptr %5
}

; Function Attrs: mustprogress nounwind uwtable
define linkonce_odr void @_ZN3gmx5RangeIiE8iteratorC2Ei(ptr noundef nonnull align 4 dereferenceable(4) %0, i32 noundef %1) unnamed_addr #2 comdat align 2 {
  %3 = alloca ptr, align 8
  %4 = alloca i32, align 4
  store ptr %0, ptr %3, align 8, !tbaa !299
  store i32 %1, ptr %4, align 4, !tbaa !54
  %5 = load ptr, ptr %3, align 8
  %6 = getelementptr inbounds nuw %"struct.gmx::Range<int>::iterator", ptr %5, i32 0, i32 0
  %7 = load i32, ptr %4, align 4, !tbaa !54
  store i32 %7, ptr %6, align 4, !tbaa !301
  ret void
}

; Function Attrs: mustprogress nounwind uwtable
define linkonce_odr noundef nonnull align 8 dereferenceable(32) ptr @_ZNK3gmx12ArrayRefIterIKNS_27AtomInfoWithinMoleculeBlockEEdeEv(ptr noundef nonnull align 8 dereferenceable(8) %0) #2 comdat align 2 {
  %2 = alloca ptr, align 8
  store ptr %0, ptr %2, align 8, !tbaa !617
  %3 = load ptr, ptr %2, align 8
  %4 = getelementptr inbounds nuw %"struct.gmx::ArrayRefIter.307", ptr %3, i32 0, i32 0
  %5 = load ptr, ptr %4, align 8, !tbaa !619
  ret ptr %5
}

; Function Attrs: mustprogress nounwind uwtable
define linkonce_odr ptr @_ZN3gmx5boost14stl_interfaces2v1miENS_12ArrayRefIterIKNS_27AtomInfoWithinMoleculeBlockEEEl(ptr %0, i64 noundef %1) #2 comdat {
  %3 = alloca %"struct.gmx::ArrayRefIter.307", align 8
  %4 = alloca %"struct.gmx::ArrayRefIter.307", align 8
  %5 = alloca i64, align 8
  %6 = getelementptr inbounds nuw %"struct.gmx::ArrayRefIter.307", ptr %4, i32 0, i32 0
  store ptr %0, ptr %6, align 8
  store i64 %1, ptr %5, align 8, !tbaa !21
  call void @llvm.memcpy.p0.p0.i64(ptr align 8 %3, ptr align 8 %4, i64 8, i1 false)
  %7 = load i64, ptr %5, align 8, !tbaa !21
  %8 = sub nsw i64 0, %7
  %9 = call noundef nonnull align 8 dereferenceable(8) ptr @_ZN3gmx12ArrayRefIterIKNS_27AtomInfoWithinMoleculeBlockEEpLEl(ptr noundef nonnull align 8 dereferenceable(8) %3, i64 noundef %8) #5
  %10 = getelementptr inbounds nuw %"struct.gmx::ArrayRefIter.307", ptr %3, i32 0, i32 0
  %11 = load ptr, ptr %10, align 8
  ret ptr %11
}

; Function Attrs: mustprogress nounwind uwtable
define linkonce_odr noundef nonnull align 4 dereferenceable(4) ptr @_ZN3gmx5RangeIiE8iteratorppEv(ptr noundef nonnull align 4 dereferenceable(4) %0) #2 comdat align 2 {
  %2 = alloca ptr, align 8
  store ptr %0, ptr %2, align 8, !tbaa !299
  %3 = load ptr, ptr %2, align 8
  %4 = getelementptr inbounds nuw %"struct.gmx::Range<int>::iterator", ptr %3, i32 0, i32 0
  %5 = load i32, ptr %4, align 4, !tbaa !301
  %6 = add nsw i32 %5, 1
  store i32 %6, ptr %4, align 4, !tbaa !301
  ret ptr %3
}

; Function Attrs: mustprogress nounwind uwtable
define linkonce_odr noundef nonnull align 4 dereferenceable(4) ptr @_ZNKSt6vectorIiSaIiEEixEm(ptr noundef nonnull align 8 dereferenceable(24) %0, i64 noundef %1) #2 comdat align 2 {
  %3 = alloca ptr, align 8
  %4 = alloca i64, align 8
  store ptr %0, ptr %3, align 8, !tbaa !286
  store i64 %1, ptr %4, align 8, !tbaa !21
  %5 = load ptr, ptr %3, align 8
  %6 = getelementptr inbounds nuw %"struct.std::_Vector_base.85", ptr %5, i32 0, i32 0
  %7 = getelementptr inbounds nuw %"struct.std::_Vector_base<int, std::allocator<int>>::_Vector_impl_data", ptr %6, i32 0, i32 0
  %8 = load ptr, ptr %7, align 8, !tbaa !289
  %9 = load i64, ptr %4, align 8, !tbaa !21
  %10 = getelementptr inbounds nuw i32, ptr %8, i64 %9
  ret ptr %10
}

; Function Attrs: mustprogress nounwind uwtable
define linkonce_odr noundef zeroext i1 @_ZN3gmx5RangeIiE8iteratorneES2_(ptr noundef nonnull align 4 dereferenceable(4) %0, i32 %1) #2 comdat align 2 {
  %3 = alloca %"struct.gmx::Range<int>::iterator", align 4
  %4 = alloca ptr, align 8
  %5 = getelementptr inbounds nuw %"struct.gmx::Range<int>::iterator", ptr %3, i32 0, i32 0
  store i32 %1, ptr %5, align 4
  store ptr %0, ptr %4, align 8, !tbaa !299
  %6 = load ptr, ptr %4, align 8
  %7 = getelementptr inbounds nuw %"struct.gmx::Range<int>::iterator", ptr %6, i32 0, i32 0
  %8 = load i32, ptr %7, align 4, !tbaa !301
  %9 = getelementptr inbounds nuw %"struct.gmx::Range<int>::iterator", ptr %3, i32 0, i32 0
  %10 = load i32, ptr %9, align 4, !tbaa !301
  %11 = icmp ne i32 %8, %10
  ret i1 %11
}

; Function Attrs: mustprogress uwtable
define linkonce_odr i32 @_ZNK3gmx5RangeIiE3endEv(ptr noundef nonnull align 4 dereferenceable(8) %0) #3 comdat align 2 {
  %2 = alloca %"struct.gmx::Range<int>::iterator", align 4
  %3 = alloca ptr, align 8
  store ptr %0, ptr %3, align 8, !tbaa !50
  %4 = load ptr, ptr %3, align 8
  %5 = getelementptr inbounds nuw %"class.gmx::Range", ptr %4, i32 0, i32 1
  %6 = load i32, ptr %5, align 4, !tbaa !439
  call void @_ZN3gmx5RangeIiE8iteratorC2Ei(ptr noundef nonnull align 4 dereferenceable(4) %2, i32 noundef %6)
  %7 = getelementptr inbounds nuw %"struct.gmx::Range<int>::iterator", ptr %2, i32 0, i32 0
  %8 = load i32, ptr %7, align 4
  ret i32 %8
}

; Function Attrs: inlinehint mustprogress uwtable
define internal void @"_ZZNK3gmx21TestParticleInsertion17checkEnergyGroupsENS_8ArrayRefIKNS_27AtomInfoWithinMoleculeBlockEEEP8_IO_FILEENK3$_0clEv"(ptr noundef nonnull align 1 dereferenceable(1) %0) #8 align 2 {
  %2 = alloca ptr, align 8
  store ptr %0, ptr %2, align 8, !tbaa !303
  call void @_ZN3gmx8internal13assertHandlerEPKcS2_S2_S2_i(ptr noundef @.str.24, ptr noundef @.str.18, ptr noundef @"__PRETTY_FUNCTION__._ZZNK3gmx21TestParticleInsertion17checkEnergyGroupsENS_8ArrayRefIKNS_27AtomInfoWithinMoleculeBlockEEEP8_IO_FILEENK3$_0clEv", ptr noundef @.str.19, i32 noundef 427) #22
  unreachable
}

; Function Attrs: mustprogress nounwind uwtable
define linkonce_odr noundef i32 @_ZNK3gmx5RangeIiE8iteratordeEv(ptr noundef nonnull align 4 dereferenceable(4) %0) #2 comdat align 2 {
  %2 = alloca ptr, align 8
  store ptr %0, ptr %2, align 8, !tbaa !299
  %3 = load ptr, ptr %2, align 8
  %4 = getelementptr inbounds nuw %"struct.gmx::Range<int>::iterator", ptr %3, i32 0, i32 0
  %5 = load i32, ptr %4, align 4, !tbaa !301
  ret i32 %5
}

; Function Attrs: mustprogress uwtable
define linkonce_odr i32 @_ZNK3gmx5RangeIiE5beginEv(ptr noundef nonnull align 4 dereferenceable(8) %0) #3 comdat align 2 {
  %2 = alloca %"struct.gmx::Range<int>::iterator", align 4
  %3 = alloca ptr, align 8
  store ptr %0, ptr %3, align 8, !tbaa !50
  %4 = load ptr, ptr %3, align 8
  %5 = getelementptr inbounds nuw %"class.gmx::Range", ptr %4, i32 0, i32 0
  %6 = load i32, ptr %5, align 4, !tbaa !298
  call void @_ZN3gmx5RangeIiE8iteratorC2Ei(ptr noundef nonnull align 4 dereferenceable(4) %2, i32 noundef %6)
  %7 = getelementptr inbounds nuw %"struct.gmx::Range<int>::iterator", ptr %2, i32 0, i32 0
  %8 = load i32, ptr %7, align 4
  ret i32 %8
}

; Function Attrs: mustprogress nounwind uwtable
define linkonce_odr noundef nonnull align 8 dereferenceable(32) ptr @_ZNK3gmx8ArrayRefIKNS_27AtomInfoWithinMoleculeBlockEE4backEv(ptr noundef nonnull align 8 dereferenceable(16) %0) #2 comdat align 2 {
  %2 = alloca ptr, align 8
  %3 = alloca %"struct.gmx::ArrayRefIter.307", align 8
  %4 = alloca %"struct.gmx::ArrayRefIter.307", align 8
  store ptr %0, ptr %2, align 8, !tbaa !615
  %5 = load ptr, ptr %2, align 8
  call void @llvm.lifetime.start.p0(i64 8, ptr %3) #5
  %6 = getelementptr inbounds nuw %"class.gmx::ArrayRef.306", ptr %5, i32 0, i32 1
  call void @llvm.memcpy.p0.p0.i64(ptr align 8 %4, ptr align 8 %6, i64 8, i1 false)
  %7 = getelementptr inbounds nuw %"struct.gmx::ArrayRefIter.307", ptr %4, i32 0, i32 0
  %8 = load ptr, ptr %7, align 8
  %9 = call ptr @_ZN3gmx5boost14stl_interfaces2v1miENS_12ArrayRefIterIKNS_27AtomInfoWithinMoleculeBlockEEEl(ptr %8, i64 noundef 1) #5
  %10 = getelementptr inbounds nuw %"struct.gmx::ArrayRefIter.307", ptr %3, i32 0, i32 0
  store ptr %9, ptr %10, align 8
  %11 = call noundef nonnull align 8 dereferenceable(32) ptr @_ZNK3gmx12ArrayRefIterIKNS_27AtomInfoWithinMoleculeBlockEEdeEv(ptr noundef nonnull align 8 dereferenceable(8) %3) #5
  call void @llvm.lifetime.end.p0(i64 8, ptr %3) #5
  ret ptr %11
}

; Function Attrs: mustprogress uwtable
define void @_ZNK3gmx21TestParticleInsertion17checkEnergyGroupsENS_8ArrayRefIKNS_27AtomInfoWithinMoleculeBlockEEEP8_IO_FILE(ptr noundef nonnull align 8 dereferenceable(560) %0, ptr %1, ptr %2, ptr noundef %3) #3 align 2 {
  %5 = alloca %"class.gmx::ArrayRef.306", align 8
  %6 = alloca ptr, align 8
  %7 = alloca ptr, align 8
  %8 = alloca ptr, align 8
  %9 = alloca %"struct.gmx::Range<int>::iterator", align 4
  %10 = alloca %class.anon.309, align 1
  %11 = alloca ptr, align 8
  %12 = alloca %"struct.gmx::Range<int>::iterator", align 4
  %13 = alloca %"struct.gmx::Range<int>::iterator", align 4
  %14 = alloca %"struct.gmx::Range<int>::iterator", align 4
  %15 = alloca i32, align 4
  %16 = alloca i32, align 4
  %17 = alloca %"struct.gmx::Range<int>::iterator", align 4
  %18 = getelementptr inbounds nuw { ptr, ptr }, ptr %5, i32 0, i32 0
  store ptr %1, ptr %18, align 8
  %19 = getelementptr inbounds nuw { ptr, ptr }, ptr %5, i32 0, i32 1
  store ptr %2, ptr %19, align 8
  store ptr %0, ptr %6, align 8, !tbaa !34
  store ptr %3, ptr %7, align 8, !tbaa !613
  %20 = load ptr, ptr %6, align 8
  call void @llvm.lifetime.start.p0(i64 8, ptr %8) #5
  %21 = call noundef nonnull align 8 dereferenceable(32) ptr @_ZNK3gmx8ArrayRefIKNS_27AtomInfoWithinMoleculeBlockEE4backEv(ptr noundef nonnull align 8 dereferenceable(16) %5)
  store ptr %21, ptr %8, align 8, !tbaa !201
  %22 = load ptr, ptr %8, align 8, !tbaa !201
  %23 = getelementptr inbounds nuw %"struct.gmx::AtomInfoWithinMoleculeBlock", ptr %22, i32 0, i32 0
  %24 = load i32, ptr %23, align 8, !tbaa !203
  call void @llvm.lifetime.start.p0(i64 4, ptr %9) #5
  %25 = getelementptr inbounds nuw %"class.gmx::TestParticleInsertion", ptr %20, i32 0, i32 11
  %26 = call i32 @_ZNK3gmx5RangeIiE5beginEv(ptr noundef nonnull align 4 dereferenceable(8) %25)
  %27 = getelementptr inbounds nuw %"struct.gmx::Range<int>::iterator", ptr %9, i32 0, i32 0
  store i32 %26, ptr %27, align 4
  %28 = call noundef i32 @_ZNK3gmx5RangeIiE8iteratordeEv(ptr noundef nonnull align 4 dereferenceable(4) %9)
  %29 = icmp eq i32 %24, %28
  call void @llvm.lifetime.start.p0(i64 1, ptr %10) #5
  br i1 %29, label %30, label %31

30:                                               ; preds = %4
  br label %32

31:                                               ; preds = %4
  call void @"_ZZNK3gmx21TestParticleInsertion17checkEnergyGroupsENS_8ArrayRefIKNS_27AtomInfoWithinMoleculeBlockEEEP8_IO_FILEENK3$_0clEv"(ptr noundef nonnull align 1 dereferenceable(1) %10)
  br label %32

32:                                               ; preds = %31, %30
  call void @llvm.lifetime.end.p0(i64 1, ptr %10) #5
  call void @llvm.lifetime.end.p0(i64 4, ptr %9) #5
  call void @llvm.lifetime.start.p0(i64 8, ptr %11) #5
  %33 = getelementptr inbounds nuw %"class.gmx::TestParticleInsertion", ptr %20, i32 0, i32 11
  store ptr %33, ptr %11, align 8, !tbaa !50
  call void @llvm.lifetime.start.p0(i64 4, ptr %12) #5
  %34 = load ptr, ptr %11, align 8, !tbaa !50
  %35 = call i32 @_ZNK3gmx5RangeIiE5beginEv(ptr noundef nonnull align 4 dereferenceable(8) %34)
  %36 = getelementptr inbounds nuw %"struct.gmx::Range<int>::iterator", ptr %12, i32 0, i32 0
  store i32 %35, ptr %36, align 4
  call void @llvm.lifetime.start.p0(i64 4, ptr %13) #5
  %37 = load ptr, ptr %11, align 8, !tbaa !50
  %38 = call i32 @_ZNK3gmx5RangeIiE3endEv(ptr noundef nonnull align 4 dereferenceable(8) %37)
  %39 = getelementptr inbounds nuw %"struct.gmx::Range<int>::iterator", ptr %13, i32 0, i32 0
  store i32 %38, ptr %39, align 4
  br label %40

40:                                               ; preds = %69, %32
  call void @llvm.memcpy.p0.p0.i64(ptr align 4 %14, ptr align 4 %13, i64 4, i1 false), !tbaa.struct !438
  %41 = getelementptr inbounds nuw %"struct.gmx::Range<int>::iterator", ptr %14, i32 0, i32 0
  %42 = load i32, ptr %41, align 4
  %43 = call noundef zeroext i1 @_ZN3gmx5RangeIiE8iteratorneES2_(ptr noundef nonnull align 4 dereferenceable(4) %12, i32 %42)
  br i1 %43, label %45, label %44

44:                                               ; preds = %40
  store i32 2, ptr %15, align 4
  br label %71

45:                                               ; preds = %40
  call void @llvm.lifetime.start.p0(i64 4, ptr %16) #5
  %46 = call noundef i32 @_ZNK3gmx5RangeIiE8iteratordeEv(ptr noundef nonnull align 4 dereferenceable(4) %12)
  store i32 %46, ptr %16, align 4, !tbaa !54
  %47 = load ptr, ptr %8, align 8, !tbaa !201
  %48 = getelementptr inbounds nuw %"struct.gmx::AtomInfoWithinMoleculeBlock", ptr %47, i32 0, i32 2
  %49 = load i32, ptr %16, align 4, !tbaa !54
  call void @llvm.lifetime.start.p0(i64 4, ptr %17) #5
  %50 = getelementptr inbounds nuw %"class.gmx::TestParticleInsertion", ptr %20, i32 0, i32 11
  %51 = call i32 @_ZNK3gmx5RangeIiE5beginEv(ptr noundef nonnull align 4 dereferenceable(8) %50)
  %52 = getelementptr inbounds nuw %"struct.gmx::Range<int>::iterator", ptr %17, i32 0, i32 0
  store i32 %51, ptr %52, align 4
  %53 = call noundef i32 @_ZNK3gmx5RangeIiE8iteratordeEv(ptr noundef nonnull align 4 dereferenceable(4) %17)
  %54 = sub nsw i32 %49, %53
  %55 = sext i32 %54 to i64
  %56 = call noundef nonnull align 4 dereferenceable(4) ptr @_ZNKSt6vectorIiSaIiEEixEm(ptr noundef nonnull align 8 dereferenceable(24) %48, i64 noundef %55) #5
  %57 = load i32, ptr %56, align 4, !tbaa !54
  %58 = and i32 %57, 255
  %59 = getelementptr inbounds nuw %"class.gmx::TestParticleInsertion", ptr %20, i32 0, i32 16
  %60 = load i32, ptr %59, align 4, !tbaa !257
  %61 = icmp ne i32 %58, %60
  call void @llvm.lifetime.end.p0(i64 4, ptr %17) #5
  br i1 %61, label %62, label %65

62:                                               ; preds = %45
  %63 = load ptr, ptr %7, align 8, !tbaa !613
  %64 = call i32 (ptr, ptr, ...) @fprintf(ptr noundef %63, ptr noundef @.str.23) #5
  store i32 2, ptr %15, align 4
  br label %66

65:                                               ; preds = %45
  store i32 0, ptr %15, align 4
  br label %66

66:                                               ; preds = %65, %62
  call void @llvm.lifetime.end.p0(i64 4, ptr %16) #5
  %67 = load i32, ptr %15, align 4
  switch i32 %67, label %71 [
    i32 0, label %68
  ]

68:                                               ; preds = %66
  br label %69

69:                                               ; preds = %68
  %70 = call noundef nonnull align 4 dereferenceable(4) ptr @_ZN3gmx5RangeIiE8iteratorppEv(ptr noundef nonnull align 4 dereferenceable(4) %12)
  br label %40

71:                                               ; preds = %66, %44
  call void @llvm.lifetime.end.p0(i64 4, ptr %13) #5
  call void @llvm.lifetime.end.p0(i64 4, ptr %12) #5
  call void @llvm.lifetime.end.p0(i64 8, ptr %11) #5
  br label %72

72:                                               ; preds = %71
  call void @llvm.lifetime.end.p0(i64 8, ptr %8) #5
  ret void
}