; Function Attrs: mustprogress uwtable
define void @_ZNK3gmx21TestParticleInsertion17checkEnergyGroupsENS_8ArrayRefIKNS_27AtomInfoWithinMoleculeBlockEEEP8_IO_FILE(ptr noundef nonnull readonly align 8 captures(none) dereferenceable(560) %0, ptr readnone captures(none) %1, ptr readonly captures(none) %2, ptr noundef captures(none) %3) local_unnamed_addr #10 align 2 {
  %5 = getelementptr inbounds i8, ptr %2, i64 -32
  %6 = load i32, ptr %5, align 8, !tbaa !193
  %7 = getelementptr inbounds nuw i8, ptr %0, i64 400
  %8 = load i32, ptr %7, align 8, !tbaa !178
  %9 = icmp eq i32 %6, %8
  br i1 %9, label %11, label %10

10:                                               ; preds = %4
  tail call void @_ZN3gmx8internal13assertHandlerEPKcS2_S2_S2_i(ptr noundef nonnull @.str.24, ptr noundef nonnull @.str.18, ptr noundef nonnull @"__PRETTY_FUNCTION__._ZZNK3gmx21TestParticleInsertion17checkEnergyGroupsENS_8ArrayRefIKNS_27AtomInfoWithinMoleculeBlockEEEP8_IO_FILEENK3$_0clEv", ptr noundef nonnull @.str.19, i32 noundef 427) #30
  unreachable

11:                                               ; preds = %4
  %12 = getelementptr inbounds nuw i8, ptr %0, i64 404
  %13 = load i32, ptr %12, align 4, !tbaa !179
  %.not1415 = icmp eq i32 %6, %13
  br i1 %.not1415, label %.loopexit, label %.critedge.lr.ph

.critedge.lr.ph:                                  ; preds = %11
  %14 = getelementptr inbounds i8, ptr %2, i64 -24
  %15 = load ptr, ptr %14, align 8, !tbaa !175
  %16 = getelementptr inbounds nuw i8, ptr %0, i64 460
  %17 = load i32, ptr %16, align 4, !tbaa !247
  %18 = sext i32 %6 to i64
  br label %.critedge

19:                                               ; preds = %.critedge
  %indvars.iv.next = add nsw i64 %indvars.iv, 1
  %20 = trunc nsw i64 %indvars.iv.next to i32
  %.not14 = icmp eq i32 %13, %20
  br i1 %.not14, label %.loopexit, label %.critedge

.critedge:                                        ; preds = %.critedge.lr.ph, %19
  %indvars.iv = phi i64 [ %18, %.critedge.lr.ph ], [ %indvars.iv.next, %19 ]
  %21 = sub nsw i64 %indvars.iv, %18
  %22 = getelementptr inbounds nuw i32, ptr %15, i64 %21
  %23 = load i32, ptr %22, align 4, !tbaa !182
  %24 = and i32 %23, 255
  %.not = icmp eq i32 %24, %17
  br i1 %.not, label %19, label %25

25:                                               ; preds = %.critedge
  %26 = tail call i64 @fwrite(ptr nonnull @.str.23, i64 147, i64 1, ptr %3)
  br label %.loopexit

.loopexit:                                        ; preds = %19, %11, %25
  ret void
}